; ModuleID = '31/1533.c'
source_filename = "31/1533.c"
target datalayout = "e-m:e-p270:32:32-p271:32:32-p272:64:64-i64:64-f80:128-n8:16:32:64-S128"
target triple = "x86_64-pc-linux-gnu"

%struct.stu = type { [20 x i8], [20 x i8], i8, i32, double, [20 x i8], %struct.stu* }

@.str = private unnamed_addr constant [20 x i8] c"%s %s %c %d %lf %s \00", align 1
@.str.1 = private unnamed_addr constant [4 x i8] c"%s \00", align 1
@.str.2 = private unnamed_addr constant [17 x i8] c"%s %c %d %lf %s \00", align 1
@.str.3 = private unnamed_addr constant [19 x i8] c"%s %s %c %d %g %s\0A\00", align 1

; Function Attrs: noinline nounwind uwtable
define dso_local %struct.stu* @creat() #0 {
  %1 = alloca %struct.stu*, align 8
  %2 = alloca %struct.stu*, align 8
  %3 = alloca %struct.stu*, align 8
  %4 = call noalias i8* @malloc(i64 100) #3
  %5 = bitcast i8* %4 to %struct.stu*
  store %struct.stu* %5, %struct.stu** %2, align 8
  %6 = load %struct.stu*, %struct.stu** %2, align 8
  %7 = getelementptr inbounds %struct.stu, %struct.stu* %6, i32 0, i32 0
  %8 = load %struct.stu*, %struct.stu** %2, align 8
  %9 = getelementptr inbounds %struct.stu, %struct.stu* %8, i32 0, i32 1
  %10 = load %struct.stu*, %struct.stu** %2, align 8
  %11 = getelementptr inbounds %struct.stu, %struct.stu* %10, i32 0, i32 2
  %12 = load %struct.stu*, %struct.stu** %2, align 8
  %13 = getelementptr inbounds %struct.stu, %struct.stu* %12, i32 0, i32 3
  %14 = load %struct.stu*, %struct.stu** %2, align 8
  %15 = getelementptr inbounds %struct.stu, %struct.stu* %14, i32 0, i32 4
  %16 = load %struct.stu*, %struct.stu** %2, align 8
  %17 = getelementptr inbounds %struct.stu, %struct.stu* %16, i32 0, i32 5
  %18 = call i32 (i8*, ...) @__isoc99_scanf(i8* getelementptr inbounds ([20 x i8], [20 x i8]* @.str, i64 0, i64 0), [20 x i8]* %7, [20 x i8]* %9, i8* %11, i32* %13, double* %15, [20 x i8]* %17)
  %19 = load %struct.stu*, %struct.stu** %2, align 8
  store %struct.stu* %19, %struct.stu** %3, align 8
  %20 = load %struct.stu*, %struct.stu** %2, align 8
  store %struct.stu* %20, %struct.stu** %1, align 8
  %21 = load %struct.stu*, %struct.stu** %2, align 8
  %22 = getelementptr inbounds %struct.stu, %struct.stu* %21, i32 0, i32 6
  store %struct.stu* null, %struct.stu** %22, align 8
  br label %23

23:                                               ; preds = %0, %52
  %24 = call noalias i8* @malloc(i64 100) #3
  %25 = bitcast i8* %24 to %struct.stu*
  store %struct.stu* %25, %struct.stu** %2, align 8
  %26 = load %struct.stu*, %struct.stu** %2, align 8
  %27 = getelementptr inbounds %struct.stu, %struct.stu* %26, i32 0, i32 0
  %28 = call i32 (i8*, ...) @__isoc99_scanf(i8* getelementptr inbounds ([4 x i8], [4 x i8]* @.str.1, i64 0, i64 0), [20 x i8]* %27)
  %29 = load %struct.stu*, %struct.stu** %2, align 8
  %30 = getelementptr inbounds %struct.stu, %struct.stu* %29, i32 0, i32 0
  %31 = getelementptr inbounds [20 x i8], [20 x i8]* %30, i64 0, i64 0
  %32 = load i8, i8* %31, align 8
  %33 = sext i8 %32 to i32
  %34 = icmp ne i32 %33, 101
  br i1 %34, label %35, label %51

35:                                               ; preds = %23
  %36 = load %struct.stu*, %struct.stu** %2, align 8
  %37 = getelementptr inbounds %struct.stu, %struct.stu* %36, i32 0, i32 1
  %38 = load %struct.stu*, %struct.stu** %2, align 8
  %39 = getelementptr inbounds %struct.stu, %struct.stu* %38, i32 0, i32 2
  %40 = load %struct.stu*, %struct.stu** %2, align 8
  %41 = getelementptr inbounds %struct.stu, %struct.stu* %40, i32 0, i32 3
  %42 = load %struct.stu*, %struct.stu** %2, align 8
  %43 = getelementptr inbounds %struct.stu, %struct.stu* %42, i32 0, i32 4
  %44 = load %struct.stu*, %struct.stu** %2, align 8
  %45 = getelementptr inbounds %struct.stu, %struct.stu* %44, i32 0, i32 5
  %46 = call i32 (i8*, ...) @__isoc99_scanf(i8* getelementptr inbounds ([17 x i8], [17 x i8]* @.str.2, i64 0, i64 0), [20 x i8]* %37, i8* %39, i32* %41, double* %43, [20 x i8]* %45)
  %47 = load %struct.stu*, %struct.stu** %3, align 8
  %48 = load %struct.stu*, %struct.stu** %2, align 8
  %49 = getelementptr inbounds %struct.stu, %struct.stu* %48, i32 0, i32 6
  store %struct.stu* %47, %struct.stu** %49, align 8
  %50 = load %struct.stu*, %struct.stu** %2, align 8
  store %struct.stu* %50, %struct.stu** %3, align 8
  br label %52

51:                                               ; preds = %23
  br label %53

52:                                               ; preds = %35
  br label %23

53:                                               ; preds = %51
  %54 = load %struct.stu*, %struct.stu** %3, align 8
  ret %struct.stu* %54
}

; Function Attrs: nounwind
declare dso_local noalias i8* @malloc(i64) #1

declare dso_local i32 @__isoc99_scanf(i8*, ...) #2

; Function Attrs: noinline nounwind uwtable
define dso_local void @print(%struct.stu* %0) #0 {
  %2 = alloca %struct.stu*, align 8
  %3 = alloca %struct.stu*, align 8
  store %struct.stu* %0, %struct.stu** %2, align 8
  %4 = load %struct.stu*, %struct.stu** %2, align 8
  store %struct.stu* %4, %struct.stu** %3, align 8
  br label %5

5:                                                ; preds = %8, %1
  %6 = load %struct.stu*, %struct.stu** %3, align 8
  %7 = icmp ne %struct.stu* %6, null
  br i1 %7, label %8, label %32

8:                                                ; preds = %5
  %9 = load %struct.stu*, %struct.stu** %3, align 8
  %10 = getelementptr inbounds %struct.stu, %struct.stu* %9, i32 0, i32 0
  %11 = getelementptr inbounds [20 x i8], [20 x i8]* %10, i64 0, i64 0
  %12 = load %struct.stu*, %struct.stu** %3, align 8
  %13 = getelementptr inbounds %struct.stu, %struct.stu* %12, i32 0, i32 1
  %14 = getelementptr inbounds [20 x i8], [20 x i8]* %13, i64 0, i64 0
  %15 = load %struct.stu*, %struct.stu** %3, align 8
  %16 = getelementptr inbounds %struct.stu, %struct.stu* %15, i32 0, i32 2
  %17 = load i8, i8* %16, align 8
  %18 = sext i8 %17 to i32
  %19 = load %struct.stu*, %struct.stu** %3, align 8
  %20 = getelementptr inbounds %struct.stu, %struct.stu* %19, i32 0, i32 3
  %21 = load i32, i32* %20, align 4
  %22 = load %struct.stu*, %struct.stu** %3, align 8
  %23 = getelementptr inbounds %struct.stu, %struct.stu* %22, i32 0, i32 4
  %24 = load double, double* %23, align 8
  %25 = load %struct.stu*, %struct.stu** %3, align 8
  %26 = getelementptr inbounds %struct.stu, %struct.stu* %25, i32 0, i32 5
  %27 = getelementptr inbounds [20 x i8], [20 x i8]* %26, i64 0, i64 0
  %28 = call i32 (i8*, ...) @printf(i8* getelementptr inbounds ([19 x i8], [19 x i8]* @.str.3, i64 0, i64 0), i8* %11, i8* %14, i32 %18, i32 %21, double %24, i8* %27)
  %29 = load %struct.stu*, %struct.stu** %3, align 8
  %30 = getelementptr inbounds %struct.stu, %struct.stu* %29, i32 0, i32 6
  %31 = load %struct.stu*, %struct.stu** %30, align 8
  store %struct.stu* %31, %struct.stu** %3, align 8
  br label %5

32:                                               ; preds = %5
  ret void
}

declare dso_local i32 @printf(i8*, ...) #2

; Function Attrs: noinline nounwind uwtable
define dso_local void @destroy(%struct.stu* %0) #0 {
  %2 = alloca %struct.stu*, align 8
  %3 = alloca %struct.stu*, align 8
  store %struct.stu* %0, %struct.stu** %2, align 8
  br label %4

4:                                                ; preds = %7, %1
  %5 = load %struct.stu*, %struct.stu** %2, align 8
  %6 = icmp ne %struct.stu* %5, null
  br i1 %6, label %7, label %14

7:                                                ; preds = %4
  %8 = load %struct.stu*, %struct.stu** %2, align 8
  store %struct.stu* %8, %struct.stu** %3, align 8
  %9 = load %struct.stu*, %struct.stu** %2, align 8
  %10 = getelementptr inbounds %struct.stu, %struct.stu* %9, i32 0, i32 6
  %11 = load %struct.stu*, %struct.stu** %10, align 8
  store %struct.stu* %11, %struct.stu** %2, align 8
  %12 = load %struct.stu*, %struct.stu** %3, align 8
  %13 = bitcast %struct.stu* %12 to i8*
  call void @free(i8* %13) #3
  br label %4

14:                                               ; preds = %4
  ret void
}

; Function Attrs: nounwind
declare dso_local void @free(i8*) #1

; Function Attrs: noinline nounwind uwtable
define dso_local i32 @main() #0 {
  %1 = alloca i32, align 4
  %2 = alloca %struct.stu*, align 8
  store i32 0, i32* %1, align 4
  %3 = call %struct.stu* @creat()
  store %struct.stu* %3, %struct.stu** %2, align 8
  %4 = load %struct.stu*, %struct.stu** %2, align 8
  call void @print(%struct.stu* %4)
  %5 = load %struct.stu*, %struct.stu** %2, align 8
  call void @destroy(%struct.stu* %5)
  ret i32 0
}


!llvm.module.flags = !{!0}
!llvm.ident = !{!1}

!0 = !{i32 1, !"wchar_size", i32 4}
!1 = !{!"clang version 10.0.0-4ubuntu1 "}
